target datalayout = "e-m:e-p270:32:32-p271:32:32-p272:64:64-i64:64-i128:128-f80:128-n8:16:32:64-S128"
target triple = "x86_64-pc-linux-gnu"

%struct.RCVLN = type { [5120 x i8], i32, i32, ptr, ptr }
%struct.optstruct = type { ptr, ptr, ptr, i64, i32, i32, i32, i32, ptr, ptr, ptr }

@.str = private unnamed_addr constant [27 x i8] c"null parameter was passed\0A\00", align 1
@.str.1 = private unnamed_addr constant [5 x i8] c"ping\00", align 1
@.str.2 = private unnamed_addr constant [38 x i8] c"could not allocate memory for string\0A\00", align 1
@.str.3 = private unnamed_addr constant [42 x i8] c"interval_str would go past end of buffer\0A\00", align 1
@.str.4 = private unnamed_addr constant [41 x i8] c"attempt_str would go past end of buffer\0A\00", align 1
@clamdopts = external global ptr, align 8
@__const.ping_clamd.zPING = private unnamed_addr constant [6 x i8] c"zPING\00", align 1
@.str.5 = private unnamed_addr constant [16 x i8] c"PING failed...\0A\00", align 1
@.str.6 = private unnamed_addr constant [5 x i8] c"wait\00", align 1
@.str.7 = private unnamed_addr constant [6 x i8] c"PONG\0A\00", align 1
@.str.8 = private unnamed_addr constant [49 x i8] c"Could not connect, will try again in %lu second\0A\00", align 1
@.str.9 = private unnamed_addr constant [50 x i8] c"Could not connect, will try again in %lu seconds\0A\00", align 1
@.str.10 = private unnamed_addr constant [50 x i8] c"Could not connect, will PING again in %lu second\0A\00", align 1
@.str.11 = private unnamed_addr constant [51 x i8] c"Could not connect, will PING again in %lu seconds\0A\00", align 1
@.str.12 = private unnamed_addr constant [51 x i8] c"Wait timeout exceeded; Could not connect to clamd\0A\00", align 1
@.str.13 = private unnamed_addr constant [47 x i8] c"PING timeout exceeded; No response from clamd\0A\00", align 1

; Function Attrs: nounwind uwtable
define dso_local signext i16 @ping_clamd(ptr noundef %0) #0 {
  %2 = alloca ptr, align 8
  %3 = alloca i64, align 8
  %4 = alloca i64, align 8
  %5 = alloca ptr, align 8
  %6 = alloca ptr, align 8
  %7 = alloca ptr, align 8
  %8 = alloca i64, align 8
  %9 = alloca ptr, align 8
  %10 = alloca i64, align 8
  %11 = alloca %struct.RCVLN, align 8
  %12 = alloca i16, align 2
  %13 = alloca [6 x i8], align 1
  store ptr %0, ptr %2, align 8
  store i64 0, ptr %3, align 8
  store i64 0, ptr %4, align 8
  store ptr null, ptr %5, align 8
  store ptr null, ptr %6, align 8
  store ptr null, ptr %7, align 8
  store i64 0, ptr %8, align 8
  store ptr null, ptr %9, align 8
  store i16 0, ptr %12, align 2
  %14 = load ptr, ptr %2, align 8
  %15 = icmp eq ptr %14, null
  br i1 %15, label %16, label %18

16:                                               ; preds = %1
  %17 = call i32 (i32, ptr, ...) @logg(i32 noundef 5, ptr noundef @.str)
  store i16 -1, ptr %12, align 2
  br label %165

18:                                               ; preds = %1
  %19 = load ptr, ptr %2, align 8
  %20 = call ptr @optget(ptr noundef %19, ptr noundef @.str.1)
  store ptr %20, ptr %9, align 8
  %21 = icmp ne ptr null, %20
  br i1 %21, label %22, label %81

22:                                               ; preds = %18
  %23 = load ptr, ptr %9, align 8
  %24 = getelementptr inbounds %struct.optstruct, ptr %23, i32 0, i32 2
  %25 = load ptr, ptr %24, align 8
  %26 = icmp ne ptr null, %25
  br i1 %26, label %27, label %79

27:                                               ; preds = %22
  %28 = load ptr, ptr %9, align 8
  %29 = getelementptr inbounds %struct.optstruct, ptr %28, i32 0, i32 2
  %30 = load ptr, ptr %29, align 8
  %31 = call ptr @cli_safer_strdup(ptr noundef %30)
  store ptr %31, ptr %5, align 8
  %32 = icmp eq ptr null, %31
  br i1 %32, label %33, label %35

33:                                               ; preds = %27
  %34 = call i32 (i32, ptr, ...) @logg(i32 noundef 5, ptr noundef @.str.2)
  store i16 -1, ptr %12, align 2
  br label %165

35:                                               ; preds = %27
  %36 = load ptr, ptr %5, align 8
  %37 = call ptr @strchr(ptr noundef %36, i32 noundef 58) #8
  store ptr %37, ptr %6, align 8
  %38 = load ptr, ptr %6, align 8
  %39 = icmp ne ptr null, %38
  br i1 %39, label %40, label %64

40:                                               ; preds = %35
  %41 = load ptr, ptr %6, align 8
  %42 = getelementptr inbounds i8, ptr %41, i64 0
  %43 = load i8, ptr %42, align 1
  %44 = sext i8 %43 to i32
  %45 = icmp ne i32 %44, 0
  br i1 %45, label %46, label %64

46:                                               ; preds = %40
  %47 = load ptr, ptr %6, align 8
  %48 = getelementptr inbounds i8, ptr %47, i64 0
  store i8 0, ptr %48, align 1
  %49 = load ptr, ptr %6, align 8
  %50 = getelementptr inbounds i8, ptr %49, i32 1
  store ptr %50, ptr %6, align 8
  %51 = load ptr, ptr %6, align 8
  %52 = load ptr, ptr %6, align 8
  %53 = call i64 @strlen(ptr noundef %52) #8
  %54 = call i64 @cli_strntoul(ptr noundef %51, i64 noundef %53, ptr noundef %7, i32 noundef 10)
  store i64 %54, ptr %4, align 8
  %55 = load ptr, ptr %6, align 8
  %56 = load ptr, ptr %6, align 8
  %57 = call i64 @strlen(ptr noundef %56) #8
  %58 = getelementptr inbounds i8, ptr %55, i64 %57
  %59 = load ptr, ptr %7, align 8
  %60 = icmp ugt ptr %58, %59
  br i1 %60, label %61, label %63

61:                                               ; preds = %46
  %62 = call i32 (i32, ptr, ...) @logg(i32 noundef 4, ptr noundef @.str.3)
  store i16 -1, ptr %12, align 2
  br label %165

63:                                               ; preds = %46
  br label %65

64:                                               ; preds = %40, %35
  store i64 1, ptr %4, align 8
  br label %65

65:                                               ; preds = %64, %63
  %66 = load ptr, ptr %5, align 8
  %67 = load ptr, ptr %5, align 8
  %68 = call i64 @strlen(ptr noundef %67) #8
  %69 = call i64 @cli_strntoul(ptr noundef %66, i64 noundef %68, ptr noundef %7, i32 noundef 10)
  store i64 %69, ptr %3, align 8
  %70 = load ptr, ptr %5, align 8
  %71 = load ptr, ptr %5, align 8
  %72 = call i64 @strlen(ptr noundef %71) #8
  %73 = getelementptr inbounds i8, ptr %70, i64 %72
  %74 = load ptr, ptr %7, align 8
  %75 = icmp ugt ptr %73, %74
  br i1 %75, label %76, label %78

76:                                               ; preds = %65
  %77 = call i32 (i32, ptr, ...) @logg(i32 noundef 4, ptr noundef @.str.4)
  store i16 -1, ptr %12, align 2
  br label %165

78:                                               ; preds = %65
  br label %80

79:                                               ; preds = %22
  store i64 31, ptr %3, align 8
  store i64 1, ptr %4, align 8
  br label %80

80:                                               ; preds = %79, %78
  br label %81

81:                                               ; preds = %80, %18
  %82 = load ptr, ptr %2, align 8
  %83 = call i32 @isremote(ptr noundef %82)
  br label %84

84:                                               ; preds = %150, %81
  %85 = load ptr, ptr @clamdopts, align 8
  %86 = call i32 @dconnect(ptr noundef %85)
  %87 = sext i32 %86 to i64
  store i64 %87, ptr %10, align 8
  %88 = icmp sge i64 %87, 0
  br i1 %88, label %89, label %112

89:                                               ; preds = %84
  call void @llvm.memcpy.p0.p0.i64(ptr align 1 %13, ptr align 1 @__const.ping_clamd.zPING, i64 6, i1 false)
  %90 = load i64, ptr %10, align 8
  %91 = trunc i64 %90 to i32
  call void @recvlninit(ptr noundef %11, i32 noundef %91)
  %92 = load i64, ptr %10, align 8
  %93 = trunc i64 %92 to i32
  %94 = getelementptr inbounds [6 x i8], ptr %13, i64 0, i64 0
  %95 = call i32 @sendln(i32 noundef %93, ptr noundef %94, i32 noundef 6)
  %96 = icmp ne i32 %95, 0
  br i1 %96, label %97, label %102

97:                                               ; preds = %89
  %98 = call i32 (i32, ptr, ...) @logg(i32 noundef 2, ptr noundef @.str.5)
  %99 = load i64, ptr %10, align 8
  %100 = trunc i64 %99 to i32
  %101 = call i32 @close(i32 noundef %100)
  br label %111

102:                                              ; preds = %89
  %103 = load ptr, ptr %2, align 8
  %104 = call ptr @optget(ptr noundef %103, ptr noundef @.str.6)
  %105 = getelementptr inbounds %struct.optstruct, ptr %104, i32 0, i32 4
  %106 = load i32, ptr %105, align 8
  %107 = icmp ne i32 %106, 0
  br i1 %107, label %110, label %108

108:                                              ; preds = %102
  %109 = call i32 (i32, ptr, ...) @logg(i32 noundef 0, ptr noundef @.str.7)
  br label %110

110:                                              ; preds = %108, %102
  store i16 0, ptr %12, align 2
  br label %165

111:                                              ; preds = %97
  br label %112

112:                                              ; preds = %111, %84
  %113 = load i64, ptr %8, align 8
  %114 = add i64 %113, 1
  %115 = load i64, ptr %3, align 8
  %116 = icmp ult i64 %114, %115
  br i1 %116, label %117, label %147

117:                                              ; preds = %112
  %118 = load ptr, ptr %2, align 8
  %119 = call ptr @optget(ptr noundef %118, ptr noundef @.str.6)
  %120 = getelementptr inbounds %struct.optstruct, ptr %119, i32 0, i32 4
  %121 = load i32, ptr %120, align 8
  %122 = icmp ne i32 %121, 0
  br i1 %122, label %123, label %133

123:                                              ; preds = %117
  %124 = load i64, ptr %4, align 8
  %125 = icmp eq i64 %124, 1
  br i1 %125, label %126, label %129

126:                                              ; preds = %123
  %127 = load i64, ptr %4, align 8
  %128 = call i32 (i32, ptr, ...) @logg(i32 noundef 2, ptr noundef @.str.8, i64 noundef %127)
  br label %132

129:                                              ; preds = %123
  %130 = load i64, ptr %4, align 8
  %131 = call i32 (i32, ptr, ...) @logg(i32 noundef 2, ptr noundef @.str.9, i64 noundef %130)
  br label %132

132:                                              ; preds = %129, %126
  br label %143

133:                                              ; preds = %117
  %134 = load i64, ptr %4, align 8
  %135 = icmp eq i64 %134, 1
  br i1 %135, label %136, label %139

136:                                              ; preds = %133
  %137 = load i64, ptr %4, align 8
  %138 = call i32 (i32, ptr, ...) @logg(i32 noundef 0, ptr noundef @.str.10, i64 noundef %137)
  br label %142

139:                                              ; preds = %133
  %140 = load i64, ptr %4, align 8
  %141 = call i32 (i32, ptr, ...) @logg(i32 noundef 0, ptr noundef @.str.11, i64 noundef %140)
  br label %142

142:                                              ; preds = %139, %136
  br label %143

143:                                              ; preds = %142, %132
  %144 = load i64, ptr %4, align 8
  %145 = trunc i64 %144 to i32
  %146 = call i32 @sleep(i32 noundef %145)
  br label %147

147:                                              ; preds = %143, %112
  %148 = load i64, ptr %8, align 8
  %149 = add i64 %148, 1
  store i64 %149, ptr %8, align 8
  br label %150

150:                                              ; preds = %147
  %151 = load i64, ptr %8, align 8
  %152 = load i64, ptr %3, align 8
  %153 = icmp ult i64 %151, %152
  br i1 %153, label %84, label %154

154:                                              ; preds = %150
  store i16 1, ptr %12, align 2
  %155 = load ptr, ptr %2, align 8
  %156 = call ptr @optget(ptr noundef %155, ptr noundef @.str.6)
  %157 = getelementptr inbounds %struct.optstruct, ptr %156, i32 0, i32 4
  %158 = load i32, ptr %157, align 8
  %159 = icmp ne i32 %158, 0
  br i1 %159, label %160, label %162

160:                                              ; preds = %154
  %161 = call i32 (i32, ptr, ...) @logg(i32 noundef 0, ptr noundef @.str.12)
  br label %164

162:                                              ; preds = %154
  %163 = call i32 (i32, ptr, ...) @logg(i32 noundef 0, ptr noundef @.str.13)
  br label %164

164:                                              ; preds = %162, %160
  br label %165

165:                                              ; preds = %164, %110, %76, %61, %33, %16
  %166 = load ptr, ptr %5, align 8
  %167 = icmp ne ptr %166, null
  br i1 %167, label %168, label %170

168:                                              ; preds = %165
  %169 = load ptr, ptr %5, align 8
  call void @free(ptr noundef %169) #9
  br label %170

170:                                              ; preds = %168, %165
  store ptr null, ptr %5, align 8
  store ptr null, ptr %6, align 8
  store ptr null, ptr %7, align 8
  %171 = load i16, ptr %12, align 2
  ret i16 %171
}