; Function Attrs: nounwind uwtable
define dso_local noundef signext i16 @ping_clamd(ptr noundef %0) local_unnamed_addr #0 {
  %2 = alloca ptr, align 8
  %3 = alloca %struct.RCVLN, align 8
  %4 = alloca [6 x i8], align 1
  store ptr null, ptr %2, align 8
  %5 = icmp eq ptr %0, null
  br i1 %5, label %6, label %8

6:                                                ; preds = %1
  %7 = tail call i32 (i32, ptr, ...) @logg(i32 noundef 5, ptr noundef nonnull @.str) #14
  br label %.thread

8:                                                ; preds = %1
  %9 = tail call ptr @optget(ptr noundef nonnull %0, ptr noundef nonnull @.str.1) #14
  %.not = icmp eq ptr %9, null
  br i1 %.not, label %.thread98, label %11

.thread98:                                        ; preds = %8
  %10 = tail call fastcc i32 @isremote()
  br label %.split.split.preheader

11:                                               ; preds = %8
  %12 = getelementptr inbounds i8, ptr %9, i64 16
  %13 = load ptr, ptr %12, align 8
  %.not50 = icmp eq ptr %13, null
  br i1 %.not50, label %.thread88, label %15

.thread88:                                        ; preds = %11
  %14 = tail call fastcc i32 @isremote()
  br label %.split.us.split.us.preheader

15:                                               ; preds = %11
  %16 = tail call ptr @cli_safer_strdup(ptr noundef nonnull %13) #14
  %17 = icmp eq ptr %16, null
  br i1 %17, label %18, label %20

18:                                               ; preds = %15
  %19 = tail call i32 (i32, ptr, ...) @logg(i32 noundef 5, ptr noundef nonnull @.str.2) #14
  br label %.thread

20:                                               ; preds = %15
  %21 = tail call ptr @strchr(ptr noundef nonnull dereferenceable(1) %16, i32 noundef 58) #15
  %.not51 = icmp eq ptr %21, null
  br i1 %.not51, label %32, label %22

22:                                               ; preds = %20
  %23 = load i8, ptr %21, align 1
  %.not52 = icmp eq i8 %23, 0
  br i1 %.not52, label %32, label %24

24:                                               ; preds = %22
  store i8 0, ptr %21, align 1
  %25 = getelementptr inbounds i8, ptr %21, i64 1
  %26 = tail call i64 @strlen(ptr noundef nonnull dereferenceable(1) %25) #15
  %27 = call i64 @cli_strntoul(ptr noundef nonnull %25, i64 noundef %26, ptr noundef nonnull %2, i32 noundef 10) #14
  %28 = call i64 @strlen(ptr noundef nonnull dereferenceable(1) %25) #15
  %29 = getelementptr inbounds i8, ptr %25, i64 %28
  %30 = load ptr, ptr %2, align 8
  %31 = icmp ugt ptr %29, %30
  br i1 %31, label %.thread63.sink.split, label %32

32:                                               ; preds = %20, %22, %24
  %.041 = phi i64 [ %27, %24 ], [ 1, %22 ], [ 1, %20 ]
  %33 = call i64 @strlen(ptr noundef nonnull dereferenceable(1) %16) #15
  %34 = call i64 @cli_strntoul(ptr noundef nonnull %16, i64 noundef %33, ptr noundef nonnull %2, i32 noundef 10) #14
  %35 = call i64 @strlen(ptr noundef nonnull dereferenceable(1) %16) #15
  %36 = getelementptr inbounds i8, ptr %16, i64 %35
  %37 = load ptr, ptr %2, align 8
  %38 = icmp ugt ptr %36, %37
  br i1 %38, label %.thread63.sink.split, label %39

39:                                               ; preds = %32
  %.142.fr = freeze i64 %.041
  %40 = call fastcc i32 @isremote()
  %41 = icmp eq i64 %.142.fr, 1
  %42 = trunc i64 %.142.fr to i32
  br i1 %41, label %.split.us.split.us.preheader, label %.split.split.preheader

.split.us.split.us.preheader:                     ; preds = %39, %.thread88
  %.03897 = phi i64 [ 31, %.thread88 ], [ %34, %39 ]
  %.04096 = phi ptr [ null, %.thread88 ], [ %16, %39 ]
  %umax86 = call i64 @llvm.umax.i64(i64 %.03897, i64 1)
  %43 = add i64 %umax86, -1
  br label %.split.us.split.us

.split.us.split.us:                               ; preds = %.split.us.split.us.preheader, %62
  %.039.us.us = phi i64 [ %53, %62 ], [ 0, %.split.us.split.us.preheader ]
  %44 = load ptr, ptr @clamdopts, align 8
  %45 = call i32 @dconnect(ptr noundef %44) #14
  %46 = icmp sgt i32 %45, -1
  br i1 %46, label %47, label %52

47:                                               ; preds = %.split.us.split.us
  call void @llvm.memcpy.p0.p0.i64(ptr noundef nonnull align 1 dereferenceable(6) %4, ptr noundef nonnull align 1 dereferenceable(6) @__const.ping_clamd.zPING, i64 6, i1 false)
  call void @recvlninit(ptr noundef nonnull %3, i32 noundef %45) #14
  %48 = call i32 @sendln(i32 noundef %45, ptr noundef nonnull %4, i32 noundef 6) #14
  %.not53.us.us = icmp eq i32 %48, 0
  br i1 %.not53.us.us, label %.split70.us, label %49

49:                                               ; preds = %47
  %50 = call i32 (i32, ptr, ...) @logg(i32 noundef 2, ptr noundef nonnull @.str.5) #14
  %51 = call i32 @close(i32 noundef %45) #14
  br label %52

52:                                               ; preds = %49, %.split.us.split.us
  %53 = add nuw i64 %.039.us.us, 1
  %exitcond87.not = icmp eq i64 %.039.us.us, %43
  br i1 %exitcond87.not, label %.critedge, label %54

54:                                               ; preds = %52
  %55 = call ptr @optget(ptr noundef nonnull %0, ptr noundef nonnull @.str.6) #14
  %56 = getelementptr inbounds i8, ptr %55, i64 32
  %57 = load i32, ptr %56, align 8
  %.not55.us.us = icmp eq i32 %57, 0
  br i1 %.not55.us.us, label %60, label %58

58:                                               ; preds = %54
  %59 = call i32 (i32, ptr, ...) @logg(i32 noundef 2, ptr noundef nonnull @.str.8, i64 noundef 1) #14
  br label %62

60:                                               ; preds = %54
  %61 = call i32 (i32, ptr, ...) @logg(i32 noundef 0, ptr noundef nonnull @.str.10, i64 noundef 1) #14
  br label %62

62:                                               ; preds = %60, %58
  %63 = call i32 @sleep(i32 noundef 1) #14
  br label %.split.us.split.us

.split.split.preheader:                           ; preds = %39, %.thread98
  %64 = phi i32 [ 0, %.thread98 ], [ %42, %39 ]
  %.142.fr105 = phi i64 [ 0, %.thread98 ], [ %.142.fr, %39 ]
  %.038104 = phi i64 [ 0, %.thread98 ], [ %34, %39 ]
  %.040103 = phi ptr [ null, %.thread98 ], [ %16, %39 ]
  %umax = call i64 @llvm.umax.i64(i64 %.038104, i64 1)
  %65 = add i64 %umax, -1
  br label %.split.split

.split.split:                                     ; preds = %.split.split.preheader, %87
  %.039 = phi i64 [ %78, %87 ], [ 0, %.split.split.preheader ]
  %66 = load ptr, ptr @clamdopts, align 8
  %67 = call i32 @dconnect(ptr noundef %66) #14
  %68 = icmp sgt i32 %67, -1
  br i1 %68, label %69, label %77

69:                                               ; preds = %.split.split
  call void @llvm.memcpy.p0.p0.i64(ptr noundef nonnull align 1 dereferenceable(6) %4, ptr noundef nonnull align 1 dereferenceable(6) @__const.ping_clamd.zPING, i64 6, i1 false)
  call void @recvlninit(ptr noundef nonnull %3, i32 noundef %67) #14
  %70 = call i32 @sendln(i32 noundef %67, ptr noundef nonnull %4, i32 noundef 6) #14
  %.not53 = icmp eq i32 %70, 0
  br i1 %.not53, label %.split70.us, label %71

71:                                               ; preds = %69
  %72 = call i32 (i32, ptr, ...) @logg(i32 noundef 2, ptr noundef nonnull @.str.5) #14
  %73 = call i32 @close(i32 noundef %67) #14
  br label %77

.split70.us:                                      ; preds = %47, %69
  %.04095 = phi ptr [ %.040103, %69 ], [ %.04096, %47 ]
  %74 = call ptr @optget(ptr noundef nonnull %0, ptr noundef nonnull @.str.6) #14
  %75 = getelementptr inbounds i8, ptr %74, i64 32
  %76 = load i32, ptr %75, align 8
  %.not54 = icmp eq i32 %76, 0
  br i1 %.not54, label %.sink.split, label %93

77:                                               ; preds = %71, %.split.split
  %78 = add nuw i64 %.039, 1
  %exitcond.not = icmp eq i64 %.039, %65
  br i1 %exitcond.not, label %.critedge, label %79

79:                                               ; preds = %77
  %80 = call ptr @optget(ptr noundef nonnull %0, ptr noundef nonnull @.str.6) #14
  %81 = getelementptr inbounds i8, ptr %80, i64 32
  %82 = load i32, ptr %81, align 8
  %.not55 = icmp eq i32 %82, 0
  br i1 %.not55, label %85, label %83

83:                                               ; preds = %79
  %84 = call i32 (i32, ptr, ...) @logg(i32 noundef 2, ptr noundef nonnull @.str.9, i64 noundef %.142.fr105) #14
  br label %87

85:                                               ; preds = %79
  %86 = call i32 (i32, ptr, ...) @logg(i32 noundef 0, ptr noundef nonnull @.str.11, i64 noundef %.142.fr105) #14
  br label %87

87:                                               ; preds = %85, %83
  %88 = call i32 @sleep(i32 noundef %64) #14
  br label %.split.split

.critedge:                                        ; preds = %52, %77
  %.04094 = phi ptr [ %.040103, %77 ], [ %.04096, %52 ]
  %89 = call ptr @optget(ptr noundef nonnull %0, ptr noundef nonnull @.str.6) #14
  %90 = getelementptr inbounds i8, ptr %89, i64 32
  %91 = load i32, ptr %90, align 8
  %.not56 = icmp eq i32 %91, 0
  %.str.13..str.12 = select i1 %.not56, ptr @.str.13, ptr @.str.12
  br label %.sink.split

.sink.split:                                      ; preds = %.critedge, %.split70.us
  %.str.7.sink = phi ptr [ @.str.7, %.split70.us ], [ %.str.13..str.12, %.critedge ]
  %.04093.ph = phi ptr [ %.04095, %.split70.us ], [ %.04094, %.critedge ]
  %.0.ph = phi i16 [ 0, %.split70.us ], [ 1, %.critedge ]
  %92 = call i32 (i32, ptr, ...) @logg(i32 noundef 0, ptr noundef nonnull %.str.7.sink) #14
  br label %93

93:                                               ; preds = %.sink.split, %.split70.us
  %.04093 = phi ptr [ %.04095, %.split70.us ], [ %.04093.ph, %.sink.split ]
  %.0 = phi i16 [ 0, %.split70.us ], [ %.0.ph, %.sink.split ]
  %.not57 = icmp eq ptr %.04093, null
  br i1 %.not57, label %.thread, label %.thread63

.thread63.sink.split:                             ; preds = %32, %24
  %.str.4.sink = phi ptr [ @.str.3, %24 ], [ @.str.4, %32 ]
  %94 = call i32 (i32, ptr, ...) @logg(i32 noundef 4, ptr noundef nonnull %.str.4.sink) #14
  br label %.thread63

.thread63:                                        ; preds = %.thread63.sink.split, %93
  %.068 = phi i16 [ %.0, %93 ], [ -1, %.thread63.sink.split ]
  %.167 = phi ptr [ %.04093, %93 ], [ %16, %.thread63.sink.split ]
  call void @free(ptr noundef nonnull %.167) #14
  br label %.thread

.thread:                                          ; preds = %18, %6, %.thread63, %93
  %.061 = phi i16 [ %.068, %.thread63 ], [ %.0, %93 ], [ -1, %6 ], [ -1, %18 ]
  ret i16 %.061
}